; ModuleID = '20/29.c'
source_filename = "20/29.c"
target datalayout = "e-m:e-p270:32:32-p271:32:32-p272:64:64-i64:64-f80:128-n8:16:32:64-S128"
target triple = "x86_64-pc-linux-gnu"

; Function Attrs: noinline nounwind uwtable
define dso_local i32 @main() #0 {
  %1 = alloca i32, align 4
  %2 = alloca [20 x i8], align 16
  %3 = alloca [5 x i8], align 1
  %4 = alloca [10 x i8], align 1
  %5 = alloca i32, align 4
  %6 = alloca i32, align 4
  %7 = alloca i32, align 4
  %8 = alloca i32, align 4
  store i32 0, i32* %1, align 4
  br label %9

9:                                                ; preds = %84, %0
  %10 = getelementptr inbounds [20 x i8], [20 x i8]* %2, i64 0, i64 0
  %11 = call i32 (i8*, ...) bitcast (i32 (...)* @gets to i32 (i8*, ...)*)(i8* %10)
  %12 = sext i32 %11 to i64
  %13 = inttoptr i64 %12 to i8*
  %14 = icmp ne i8* %13, null
  br i1 %14, label %15, label %101

15:                                               ; preds = %9
  store i32 0, i32* %8, align 4
  %16 = getelementptr inbounds [20 x i8], [20 x i8]* %2, i64 0, i64 0
  %17 = call i64 @strlen(i8* %16) #4
  %18 = trunc i64 %17 to i32
  store i32 %18, i32* %6, align 4
  %19 = load i32, i32* %6, align 4
  %20 = sub nsw i32 %19, 3
  store i32 %20, i32* %5, align 4
  br label %21

21:                                               ; preds = %34, %15
  %22 = load i32, i32* %5, align 4
  %23 = load i32, i32* %6, align 4
  %24 = icmp slt i32 %22, %23
  br i1 %24, label %25, label %37

25:                                               ; preds = %21
  %26 = load i32, i32* %5, align 4
  %27 = sext i32 %26 to i64
  %28 = getelementptr inbounds [20 x i8], [20 x i8]* %2, i64 0, i64 %27
  %29 = load i8, i8* %28, align 1
  %30 = load i32, i32* %8, align 4
  %31 = add nsw i32 %30, 1
  store i32 %31, i32* %8, align 4
  %32 = sext i32 %30 to i64
  %33 = getelementptr inbounds [5 x i8], [5 x i8]* %3, i64 0, i64 %32
  store i8 %29, i8* %33, align 1
  br label %34

34:                                               ; preds = %25
  %35 = load i32, i32* %5, align 4
  %36 = add nsw i32 %35, 1
  store i32 %36, i32* %5, align 4
  br label %21

37:                                               ; preds = %21
  %38 = load i32, i32* %8, align 4
  %39 = sext i32 %38 to i64
  %40 = getelementptr inbounds [5 x i8], [5 x i8]* %3, i64 0, i64 %39
  store i8 0, i8* %40, align 1
  store i32 0, i32* %7, align 4
  store i32 0, i32* %5, align 4
  br label %41

41:                                               ; preds = %61, %37
  %42 = load i32, i32* %5, align 4
  %43 = load i32, i32* %6, align 4
  %44 = sub nsw i32 %43, 4
  %45 = icmp slt i32 %42, %44
  br i1 %45, label %46, label %64

46:                                               ; preds = %41
  %47 = load i32, i32* %5, align 4
  %48 = sext i32 %47 to i64
  %49 = getelementptr inbounds [20 x i8], [20 x i8]* %2, i64 0, i64 %48
  %50 = load i8, i8* %49, align 1
  %51 = sext i8 %50 to i32
  %52 = load i32, i32* %7, align 4
  %53 = sext i32 %52 to i64
  %54 = getelementptr inbounds [20 x i8], [20 x i8]* %2, i64 0, i64 %53
  %55 = load i8, i8* %54, align 1
  %56 = sext i8 %55 to i32
  %57 = icmp sgt i32 %51, %56
  br i1 %57, label %58, label %60

58:                                               ; preds = %46
  %59 = load i32, i32* %5, align 4
  store i32 %59, i32* %7, align 4
  br label %60

60:                                               ; preds = %58, %46
  br label %61

61:                                               ; preds = %60
  %62 = load i32, i32* %5, align 4
  %63 = add nsw i32 %62, 1
  store i32 %63, i32* %5, align 4
  br label %41

64:                                               ; preds = %41
  store i32 0, i32* %8, align 4
  %65 = load i32, i32* %7, align 4
  %66 = add nsw i32 %65, 1
  store i32 %66, i32* %5, align 4
  br label %67

67:                                               ; preds = %81, %64
  %68 = load i32, i32* %5, align 4
  %69 = load i32, i32* %6, align 4
  %70 = sub nsw i32 %69, 3
  %71 = icmp slt i32 %68, %70
  br i1 %71, label %72, label %84

72:                                               ; preds = %67
  %73 = load i32, i32* %5, align 4
  %74 = sext i32 %73 to i64
  %75 = getelementptr inbounds [20 x i8], [20 x i8]* %2, i64 0, i64 %74
  %76 = load i8, i8* %75, align 1
  %77 = load i32, i32* %8, align 4
  %78 = add nsw i32 %77, 1
  store i32 %78, i32* %8, align 4
  %79 = sext i32 %77 to i64
  %80 = getelementptr inbounds [10 x i8], [10 x i8]* %4, i64 0, i64 %79
  store i8 %76, i8* %80, align 1
  br label %81

81:                                               ; preds = %72
  %82 = load i32, i32* %5, align 4
  %83 = add nsw i32 %82, 1
  store i32 %83, i32* %5, align 4
  br label %67

84:                                               ; preds = %67
  %85 = load i32, i32* %8, align 4
  %86 = sub nsw i32 %85, 1
  %87 = sext i32 %86 to i64
  %88 = getelementptr inbounds [10 x i8], [10 x i8]* %4, i64 0, i64 %87
  store i8 0, i8* %88, align 1
  %89 = load i32, i32* %7, align 4
  %90 = add nsw i32 %89, 1
  %91 = sext i32 %90 to i64
  %92 = getelementptr inbounds [20 x i8], [20 x i8]* %2, i64 0, i64 %91
  store i8 0, i8* %92, align 1
  %93 = getelementptr inbounds [20 x i8], [20 x i8]* %2, i64 0, i64 0
  %94 = getelementptr inbounds [5 x i8], [5 x i8]* %3, i64 0, i64 0
  %95 = call i8* @strcat(i8* %93, i8* %94) #5
  %96 = getelementptr inbounds [20 x i8], [20 x i8]* %2, i64 0, i64 0
  %97 = getelementptr inbounds [10 x i8], [10 x i8]* %4, i64 0, i64 0
  %98 = call i8* @strcat(i8* %96, i8* %97) #5
  %99 = getelementptr inbounds [20 x i8], [20 x i8]* %2, i64 0, i64 0
  %100 = call i32 @puts(i8* %99)
  br label %9

101:                                              ; preds = %9
  ret i32 0
}

declare dso_local i32 @gets(...) #1

; Function Attrs: nounwind readonly
declare dso_local i64 @strlen(i8*) #2

; Function Attrs: nounwind
declare dso_local i8* @strcat(i8*, i8*) #3

declare dso_local i32 @puts(i8*) #1


!llvm.module.flags = !{!0}
!llvm.ident = !{!1}

!0 = !{i32 1, !"wchar_size", i32 4}
!1 = !{!"clang version 10.0.0-4ubuntu1 "}
